; Function Attrs: mustprogress nounwind uwtable
define internal void @"_ZNSt17_Function_handlerIFvRN4llvm16MachineIRBuilderEEZNS0_14CombinerHelper27matchInsertVectorElementOOBERNS0_12MachineInstrERSt8functionIS3_EE3$_0E9_M_invokeERKSt9_Any_dataS2_"(ptr noundef nonnull readonly align 8 captures(none) dereferenceable(16) %0, ptr noundef nonnull align 8 dereferenceable(88) %1) #0 align 2 {
  %3 = alloca %"class.llvm::DstOp", align 8
  %.val = load i32, ptr %0, align 8
  call void @llvm.lifetime.start.p0(i64 16, ptr nonnull %3)
  store i32 %.val, ptr %3, align 8
  %4 = getelementptr inbounds nuw i8, ptr %3, i64 8
  store i32 1, ptr %4, align 8
  %5 = call { ptr, ptr } @_ZN4llvm16MachineIRBuilder10buildUndefERKNS_5DstOpE(ptr noundef nonnull align 8 dereferenceable(88) %1, ptr noundef nonnull align 8 dereferenceable(12) %3) #10
  call void @llvm.lifetime.end.p0(i64 16, ptr nonnull %3)
  ret void
}